; Function Attrs: mustprogress uwtable
define noundef double @_ZNK8QuantLib13DigitalCoupon10callPayoffEv(ptr nocapture noundef nonnull readonly align 8 dereferenceable(289) %this) local_unnamed_addr #8 align 2 {
entry:
  %hasCallStrike_ = getelementptr inbounds nuw i8, ptr %this, i64 281
  %0 = load i8, ptr %hasCallStrike_, align 1, !tbaa !71, !range !26, !noundef !27
  %loadedv = trunc nuw i8 %0 to i1
  br i1 %loadedv, label %if.then, label %if.end21

if.then:                                          ; preds = %entry
  %underlying_ = getelementptr inbounds nuw i8, ptr %this, i64 176
  %1 = load ptr, ptr %underlying_, align 8, !tbaa !50
  %cmp.not.i = icmp eq ptr %1, null
  br i1 %cmp.not.i, label %cond.false.i, label %_ZNK5boost10shared_ptrIN8QuantLib18FloatingRateCouponEEptEv.exit, !prof !52

cond.false.i:                                     ; preds = %if.then
  tail call void @_ZN5boost16assertion_failedEPKcS1_S1_l(ptr noundef nonnull @.str.16, ptr noundef nonnull @__PRETTY_FUNCTION__._ZNK5boost10shared_ptrIN8QuantLib18FloatingRateCouponEEptEv, ptr noundef nonnull @.str.17, i64 noundef 784)
  %.pre.i = load ptr, ptr %underlying_, align 8, !tbaa !50
  br label %_ZNK5boost10shared_ptrIN8QuantLib18FloatingRateCouponEEptEv.exit

_ZNK5boost10shared_ptrIN8QuantLib18FloatingRateCouponEEptEv.exit: ; preds = %if.then, %cond.false.i
  %2 = phi ptr [ %1, %if.then ], [ %.pre.i, %cond.false.i ]
  %vtable = load ptr, ptr %2, align 8, !tbaa !33
  %vfn = getelementptr inbounds i8, ptr %vtable, i64 72
  %3 = load ptr, ptr %vfn, align 8
  %call2 = tail call noundef double %3(ptr noundef nonnull align 8 dereferenceable(176) %2)
  %callStrike_ = getelementptr inbounds nuw i8, ptr %this, i64 192
  %4 = load double, ptr %callStrike_, align 8, !tbaa !84
  %sub = fsub double %call2, %4
  %cmp = fcmp ogt double %sub, 0x3C9CD2B297D889BC
  br i1 %cmp, label %if.then3, label %if.else

if.then3:                                         ; preds = %_ZNK5boost10shared_ptrIN8QuantLib18FloatingRateCouponEEptEv.exit
  %isCallCashOrNothing_ = getelementptr inbounds nuw i8, ptr %this, i64 226
  %5 = load i8, ptr %isCallCashOrNothing_, align 2, !tbaa !68, !range !26, !noundef !27
  %loadedv4 = trunc nuw i8 %5 to i1
  %callDigitalPayoff_ = getelementptr inbounds nuw i8, ptr %this, i64 232
  %6 = load double, ptr %callDigitalPayoff_, align 8
  %cond = select i1 %loadedv4, double %6, double %call2
  br label %if.end21

if.else:                                          ; preds = %_ZNK5boost10shared_ptrIN8QuantLib18FloatingRateCouponEEptEv.exit
  %isCallATMIncluded_ = getelementptr inbounds nuw i8, ptr %this, i64 224
  %7 = load i8, ptr %isCallATMIncluded_, align 8, !tbaa !64, !range !26, !noundef !27
  %loadedv5 = trunc nuw i8 %7 to i1
  br i1 %loadedv5, label %if.then6, label %if.end21

if.then6:                                         ; preds = %if.else
  %sub8 = fsub double %4, %call2
  %8 = tail call noundef double @llvm.fabs.f64(double %sub8)
  %cmp10 = fcmp ugt double %8, 0x3C9CD2B297D889BC
  br i1 %cmp10, label %if.end21, label %if.then11

if.then11:                                        ; preds = %if.then6
  %isCallCashOrNothing_12 = getelementptr inbounds nuw i8, ptr %this, i64 226
  %9 = load i8, ptr %isCallCashOrNothing_12, align 2, !tbaa !68, !range !26, !noundef !27
  %loadedv13 = trunc nuw i8 %9 to i1
  %callDigitalPayoff_15 = getelementptr inbounds nuw i8, ptr %this, i64 232
  %10 = load double, ptr %callDigitalPayoff_15, align 8
  %cond18 = select i1 %loadedv13, double %10, double %call2
  br label %if.end21

if.end21:                                         ; preds = %if.then3, %if.then6, %if.then11, %if.else, %entry
  %payoff.0 = phi double [ 0.000000e+00, %entry ], [ %cond, %if.then3 ], [ %cond18, %if.then11 ], [ 0.000000e+00, %if.then6 ], [ 0.000000e+00, %if.else ]
  ret double %payoff.0
}